target datalayout = "e-m:e-p270:32:32-p271:32:32-p272:64:64-i64:64-i128:128-f80:128-n8:16:32:64-S128"
target triple = "x86_64-pc-linux-gnu"

%struct.tls_rl_record_st = type { i32, i32, i64, i64, i64, ptr, ptr, ptr, i16, [8 x i8] }

@.str = private unnamed_addr constant [43 x i8] c"../openssl/ssl/record/methods/tls13_meth.c\00", align 1
@__func__.tls13_post_process_record = private unnamed_addr constant [26 x i8] c"tls13_post_process_record\00", align 1

; Function Attrs: nounwind uwtable
define internal i32 @tls13_post_process_record(ptr noundef %0, ptr noundef %1) #0 {
  %3 = alloca i32, align 4
  %4 = alloca ptr, align 8
  %5 = alloca ptr, align 8
  %6 = alloca i64, align 8
  %7 = alloca i32, align 4
  store ptr %0, ptr %4, align 8, !tbaa !3
  store ptr %1, ptr %5, align 8, !tbaa !47
  %8 = load ptr, ptr %5, align 8, !tbaa !47
  %9 = getelementptr inbounds nuw %struct.tls_rl_record_st, ptr %8, i32 0, i32 1
  %10 = load i32, ptr %9, align 4, !tbaa !51
  %11 = icmp ne i32 %10, 21
  br i1 %11, label %12, label %63

12:                                               ; preds = %2
  call void @llvm.lifetime.start.p0(i64 8, ptr %6) #4
  %13 = load ptr, ptr %5, align 8, !tbaa !47
  %14 = getelementptr inbounds nuw %struct.tls_rl_record_st, ptr %13, i32 0, i32 2
  %15 = load i64, ptr %14, align 8, !tbaa !55
  %16 = icmp eq i64 %15, 0
  br i1 %16, label %22, label %17

17:                                               ; preds = %12
  %18 = load ptr, ptr %5, align 8, !tbaa !47
  %19 = getelementptr inbounds nuw %struct.tls_rl_record_st, ptr %18, i32 0, i32 1
  %20 = load i32, ptr %19, align 4, !tbaa !51
  %21 = icmp ne i32 %20, 23
  br i1 %21, label %22, label %24

22:                                               ; preds = %17, %12
  call void @ERR_new()
  call void @ERR_set_debug(ptr noundef @.str, i32 noundef 284, ptr noundef @__func__.tls13_post_process_record)
  %23 = load ptr, ptr %4, align 8, !tbaa !3
  call void (ptr, i32, i32, ptr, ...) @ossl_rlayer_fatal(ptr noundef %23, i32 noundef 10, i32 noundef 443, ptr noundef null)
  store i32 0, ptr %3, align 4
  store i32 1, ptr %7, align 4
  br label %60

24:                                               ; preds = %17
  %25 = load ptr, ptr %5, align 8, !tbaa !47
  %26 = getelementptr inbounds nuw %struct.tls_rl_record_st, ptr %25, i32 0, i32 2
  %27 = load i64, ptr %26, align 8, !tbaa !55
  %28 = sub i64 %27, 1
  store i64 %28, ptr %6, align 8, !tbaa !12
  br label %29

29:                                               ; preds = %44, %24
  %30 = load i64, ptr %6, align 8, !tbaa !12
  %31 = icmp ugt i64 %30, 0
  br i1 %31, label %32, label %41

32:                                               ; preds = %29
  %33 = load ptr, ptr %5, align 8, !tbaa !47
  %34 = getelementptr inbounds nuw %struct.tls_rl_record_st, ptr %33, i32 0, i32 5
  %35 = load ptr, ptr %34, align 8, !tbaa !53
  %36 = load i64, ptr %6, align 8, !tbaa !12
  %37 = getelementptr inbounds nuw i8, ptr %35, i64 %36
  %38 = load i8, ptr %37, align 1, !tbaa !57
  %39 = zext i8 %38 to i32
  %40 = icmp eq i32 %39, 0
  br label %41

41:                                               ; preds = %32, %29
  %42 = phi i1 [ false, %29 ], [ %40, %32 ]
  br i1 %42, label %43, label %47

43:                                               ; preds = %41
  br label %44

44:                                               ; preds = %43
  %45 = load i64, ptr %6, align 8, !tbaa !12
  %46 = add i64 %45, -1
  store i64 %46, ptr %6, align 8, !tbaa !12
  br label %29, !llvm.loop !63

47:                                               ; preds = %41
  %48 = load i64, ptr %6, align 8, !tbaa !12
  %49 = load ptr, ptr %5, align 8, !tbaa !47
  %50 = getelementptr inbounds nuw %struct.tls_rl_record_st, ptr %49, i32 0, i32 2
  store i64 %48, ptr %50, align 8, !tbaa !55
  %51 = load ptr, ptr %5, align 8, !tbaa !47
  %52 = getelementptr inbounds nuw %struct.tls_rl_record_st, ptr %51, i32 0, i32 5
  %53 = load ptr, ptr %52, align 8, !tbaa !53
  %54 = load i64, ptr %6, align 8, !tbaa !12
  %55 = getelementptr inbounds nuw i8, ptr %53, i64 %54
  %56 = load i8, ptr %55, align 1, !tbaa !57
  %57 = zext i8 %56 to i32
  %58 = load ptr, ptr %5, align 8, !tbaa !47
  %59 = getelementptr inbounds nuw %struct.tls_rl_record_st, ptr %58, i32 0, i32 1
  store i32 %57, ptr %59, align 4, !tbaa !51
  store i32 0, ptr %7, align 4
  br label %60

60:                                               ; preds = %47, %22
  call void @llvm.lifetime.end.p0(i64 8, ptr %6) #4
  %61 = load i32, ptr %7, align 4
  switch i32 %61, label %79 [
    i32 0, label %62
    i32 1, label %77
  ]

62:                                               ; preds = %60
  br label %63

63:                                               ; preds = %62, %2
  %64 = load ptr, ptr %5, align 8, !tbaa !47
  %65 = getelementptr inbounds nuw %struct.tls_rl_record_st, ptr %64, i32 0, i32 2
  %66 = load i64, ptr %65, align 8, !tbaa !55
  %67 = icmp ugt i64 %66, 16384
  br i1 %67, label %68, label %70

68:                                               ; preds = %63
  call void @ERR_new()
  call void @ERR_set_debug(ptr noundef @.str, i32 noundef 297, ptr noundef @__func__.tls13_post_process_record)
  %69 = load ptr, ptr %4, align 8, !tbaa !3
  call void (ptr, i32, i32, ptr, ...) @ossl_rlayer_fatal(ptr noundef %69, i32 noundef 22, i32 noundef 146, ptr noundef null)
  store i32 0, ptr %3, align 4
  br label %77

70:                                               ; preds = %63
  %71 = load ptr, ptr %4, align 8, !tbaa !3
  %72 = load ptr, ptr %5, align 8, !tbaa !47
  %73 = call i32 @tls13_common_post_process_record(ptr noundef %71, ptr noundef %72)
  %74 = icmp ne i32 %73, 0
  br i1 %74, label %76, label %75

75:                                               ; preds = %70
  store i32 0, ptr %3, align 4
  br label %77

76:                                               ; preds = %70
  store i32 1, ptr %3, align 4
  br label %77

77:                                               ; preds = %76, %75, %68, %60
  %78 = load i32, ptr %3, align 4
  ret i32 %78

79:                                               ; preds = %60
  unreachable
}