; Function Attrs: nounwind uwtable
define internal range(i32 0, 2) i32 @tls13_post_process_record(ptr noundef %0, ptr noundef %1) #0 {
  %3 = getelementptr inbounds nuw i8, ptr %1, i64 4
  %4 = load i32, ptr %3, align 4, !tbaa !34
  %.not = icmp eq i32 %4, 21
  %.phi.trans.insert = getelementptr inbounds nuw i8, ptr %1, i64 8
  %.pre28 = load i64, ptr %.phi.trans.insert, align 8, !tbaa !38
  br i1 %.not, label %._crit_edge, label %5

5:                                                ; preds = %2
  %6 = icmp ne i64 %.pre28, 0
  %.not23 = icmp eq i32 %4, 23
  %or.cond = and i1 %.not23, %6
  br i1 %or.cond, label %.preheader, label %16

.preheader:                                       ; preds = %5
  %7 = getelementptr inbounds nuw i8, ptr %1, i64 32
  %.pre.pre = load ptr, ptr %7, align 8, !tbaa !36
  br label %8

8:                                                ; preds = %.preheader, %9
  %.019.in = phi i64 [ %.019, %9 ], [ %.pre28, %.preheader ]
  %.019 = add i64 %.019.in, -1
  %.not24 = icmp eq i64 %.019, 0
  br i1 %.not24, label %.thread, label %9

9:                                                ; preds = %8
  %10 = getelementptr inbounds nuw i8, ptr %.pre.pre, i64 %.019
  %11 = load i8, ptr %10, align 1, !tbaa !40
  %12 = icmp eq i8 %11, 0
  br i1 %12, label %8, label %.thread, !llvm.loop !46

.thread:                                          ; preds = %9, %8
  store i64 %.019, ptr %.phi.trans.insert, align 8, !tbaa !38
  %13 = getelementptr inbounds nuw i8, ptr %.pre.pre, i64 %.019
  %14 = load i8, ptr %13, align 1, !tbaa !40
  %15 = zext i8 %14 to i32
  store i32 %15, ptr %3, align 4, !tbaa !34
  br label %._crit_edge

16:                                               ; preds = %5
  tail call void @ERR_new() #6
  tail call void @ERR_set_debug(ptr noundef nonnull @.str, i32 noundef 284, ptr noundef nonnull @__func__.tls13_post_process_record) #6
  tail call void (ptr, i32, i32, ptr, ...) @ossl_rlayer_fatal(ptr noundef %0, i32 noundef 10, i32 noundef 443, ptr noundef null) #6
  br label %22

._crit_edge:                                      ; preds = %2, %.thread
  %17 = phi i64 [ %.019, %.thread ], [ %.pre28, %2 ]
  %18 = icmp ugt i64 %17, 16384
  br i1 %18, label %19, label %20

19:                                               ; preds = %._crit_edge
  tail call void @ERR_new() #6
  tail call void @ERR_set_debug(ptr noundef nonnull @.str, i32 noundef 297, ptr noundef nonnull @__func__.tls13_post_process_record) #6
  tail call void (ptr, i32, i32, ptr, ...) @ossl_rlayer_fatal(ptr noundef %0, i32 noundef 22, i32 noundef 146, ptr noundef null) #6
  br label %22

20:                                               ; preds = %._crit_edge
  %21 = tail call i32 @tls13_common_post_process_record(ptr noundef %0, ptr noundef nonnull %1) #6
  %.not25 = icmp ne i32 %21, 0
  %. = zext i1 %.not25 to i32
  br label %22

22:                                               ; preds = %16, %20, %19
  %.1 = phi i32 [ 0, %16 ], [ 0, %19 ], [ %., %20 ]
  ret i32 %.1
}